target datalayout = "e-m:e-p270:32:32-p271:32:32-p272:64:64-i64:64-i128:128-f80:128-n8:16:32:64-S128"
target triple = "x86_64-pc-linux-gnu"

%struct._php_output_buffer = type { ptr, i64, i64, i32 }
%struct._php_output_handler = type { ptr, i32, i32, i64, %struct._php_output_buffer, ptr, ptr, %union.anon.2 }
%union.anon.2 = type { ptr }

; Function Attrs: nounwind uwtable
define dso_local void @php_output_handler_set_context(ptr noundef %0, ptr noundef %1, ptr noundef %2) #0 {
  %4 = alloca ptr, align 8
  %5 = alloca ptr, align 8
  %6 = alloca ptr, align 8
  store ptr %0, ptr %4, align 8, !tbaa !55
  store ptr %1, ptr %5, align 8, !tbaa !4
  store ptr %2, ptr %6, align 8, !tbaa !4
  %7 = load ptr, ptr %4, align 8, !tbaa !55
  %8 = getelementptr inbounds nuw %struct._php_output_handler, ptr %7, i32 0, i32 6
  %9 = load ptr, ptr %8, align 8, !tbaa !92
  %10 = icmp ne ptr %9, null
  br i1 %10, label %11, label %23

11:                                               ; preds = %3
  %12 = load ptr, ptr %4, align 8, !tbaa !55
  %13 = getelementptr inbounds nuw %struct._php_output_handler, ptr %12, i32 0, i32 5
  %14 = load ptr, ptr %13, align 8, !tbaa !93
  %15 = icmp ne ptr %14, null
  br i1 %15, label %16, label %23

16:                                               ; preds = %11
  %17 = load ptr, ptr %4, align 8, !tbaa !55
  %18 = getelementptr inbounds nuw %struct._php_output_handler, ptr %17, i32 0, i32 6
  %19 = load ptr, ptr %18, align 8, !tbaa !92
  %20 = load ptr, ptr %4, align 8, !tbaa !55
  %21 = getelementptr inbounds nuw %struct._php_output_handler, ptr %20, i32 0, i32 5
  %22 = load ptr, ptr %21, align 8, !tbaa !93
  call void %19(ptr noundef %22)
  br label %23

23:                                               ; preds = %16, %11, %3
  %24 = load ptr, ptr %6, align 8, !tbaa !4
  %25 = load ptr, ptr %4, align 8, !tbaa !55
  %26 = getelementptr inbounds nuw %struct._php_output_handler, ptr %25, i32 0, i32 6
  store ptr %24, ptr %26, align 8, !tbaa !92
  %27 = load ptr, ptr %5, align 8, !tbaa !4
  %28 = load ptr, ptr %4, align 8, !tbaa !55
  %29 = getelementptr inbounds nuw %struct._php_output_handler, ptr %28, i32 0, i32 5
  store ptr %27, ptr %29, align 8, !tbaa !93
  ret void
}