; Function Attrs: nounwind uwtable
define dso_local void @php_output_handler_set_context(ptr noundef captures(none) %0, ptr noundef %1, ptr noundef %2) local_unnamed_addr #0 {
  %4 = getelementptr inbounds nuw i8, ptr %0, i64 64
  %5 = load ptr, ptr %4, align 8, !tbaa !85
  %.not = icmp eq ptr %5, null
  br i1 %.not, label %10, label %6

6:                                                ; preds = %3
  %7 = getelementptr inbounds nuw i8, ptr %0, i64 56
  %8 = load ptr, ptr %7, align 8, !tbaa !86
  %.not9 = icmp eq ptr %8, null
  br i1 %.not9, label %10, label %9

9:                                                ; preds = %6
  tail call void %5(ptr noundef nonnull %8) #22
  br label %10

10:                                               ; preds = %9, %6, %3
  store ptr %2, ptr %4, align 8, !tbaa !85
  %11 = getelementptr inbounds nuw i8, ptr %0, i64 56
  store ptr %1, ptr %11, align 8, !tbaa !86
  ret void
}